target datalayout = "e-m:e-p270:32:32-p271:32:32-p272:64:64-i64:64-i128:128-f80:128-n8:16:32:64-S128"
target triple = "x86_64-pc-linux-gnu"

%struct.H5O_linfo_t = type { i8, i8, i64, i64, i64, i64, i64 }
%struct.H5O_loc_t = type { ptr, i64, i8 }
%struct.H5G_loc_t = type { ptr, ptr }
%struct.H5G_name_t = type { ptr, ptr, i32 }
%struct.H5G_t = type { ptr, %struct.H5O_loc_t, %struct.H5G_name_t }
%struct.H5G_shared_t = type { i32, i8 }
%struct.H5G_info_t = type { i32, i64, i64, i8 }

@H5G_init_g = external global i8, align 1
@H5_libterm_g = external global i8, align 1
@.str = private unnamed_addr constant [100 x i8] c"generated/home/dtcxzyw/WorkSpace/Projects/compilers/llvm-opt-benchmark/bench/hdf5/hdf5/src/H5Gobj.c\00", align 1
@H5E_SYM_g = external global i64, align 8
@H5E_CANTGET_g = external global i64, align 8
@.str.19 = private unnamed_addr constant [34 x i8] c"can't check for link info message\00", align 1
@__func__.H5G__obj_info = private unnamed_addr constant [14 x i8] c"H5G__obj_info\00", align 1
@H5E_CANTCOPY_g = external global i64, align 8
@.str.40 = private unnamed_addr constant [27 x i8] c"can't copy object location\00", align 1
@H5E_FILE_g = external global i64, align 8
@H5E_MOUNT_g = external global i64, align 8
@.str.41 = private unnamed_addr constant [22 x i8] c"mount point not found\00", align 1
@H5E_CANTCOUNT_g = external global i64, align 8
@.str.42 = private unnamed_addr constant [20 x i8] c"can't count objects\00", align 1
@H5E_CANTCLOSEOBJ_g = external global i64, align 8
@.str.43 = private unnamed_addr constant [30 x i8] c"unable to close queried group\00", align 1

; Function Attrs: nounwind uwtable
define i32 @H5G__obj_info(ptr noundef %0, ptr noundef %1) #0 {
  %3 = alloca ptr, align 8
  %4 = alloca ptr, align 8
  %5 = alloca ptr, align 8
  %6 = alloca %struct.H5G_loc_t, align 8
  %7 = alloca %struct.H5G_name_t, align 8
  %8 = alloca %struct.H5O_loc_t, align 8
  %9 = alloca %struct.H5O_linfo_t, align 8
  %10 = alloca i32, align 4
  %11 = alloca i32, align 4
  %12 = alloca i8, align 1
  store ptr %0, ptr %3, align 8, !tbaa !10
  store ptr %1, ptr %4, align 8, !tbaa !76
  call void @llvm.lifetime.start.p0(i64 8, ptr %5) #6
  store ptr null, ptr %5, align 8, !tbaa !78
  call void @llvm.lifetime.start.p0(i64 16, ptr %6) #6
  call void @llvm.lifetime.start.p0(i64 24, ptr %7) #6
  call void @llvm.lifetime.start.p0(i64 24, ptr %8) #6
  call void @llvm.lifetime.start.p0(i64 48, ptr %9) #6
  call void @llvm.lifetime.start.p0(i64 4, ptr %10) #6
  call void @llvm.lifetime.start.p0(i64 4, ptr %11) #6
  store i32 0, ptr %11, align 4, !tbaa !12
  call void @llvm.lifetime.start.p0(i64 1, ptr %12) #6
  store i8 0, ptr %12, align 1, !tbaa !14
  %13 = load i8, ptr @H5G_init_g, align 1, !tbaa !14, !range !16, !noundef !17
  %14 = trunc i8 %13 to i1
  br i1 %14, label %19, label %15

15:                                               ; preds = %2
  %16 = load i8, ptr @H5_libterm_g, align 1, !tbaa !14, !range !16, !noundef !17
  %17 = trunc i8 %16 to i1
  %18 = xor i1 %17, true
  br label %19

19:                                               ; preds = %15, %2
  %20 = phi i1 [ true, %2 ], [ %18, %15 ]
  %21 = xor i1 %20, true
  %22 = xor i1 %21, true
  %23 = zext i1 %22 to i32
  %24 = sext i32 %23 to i64
  %25 = call i64 @llvm.expect.i64(i64 %24, i64 1)
  %26 = icmp ne i64 %25, 0
  br i1 %26, label %27, label %184

27:                                               ; preds = %19
  %28 = getelementptr inbounds nuw %struct.H5G_loc_t, ptr %6, i32 0, i32 0
  store ptr %8, ptr %28, align 8, !tbaa !80
  %29 = getelementptr inbounds nuw %struct.H5G_loc_t, ptr %6, i32 0, i32 1
  store ptr %7, ptr %29, align 8, !tbaa !83
  %30 = call i32 @H5G_loc_reset(ptr noundef %6)
  %31 = load ptr, ptr %3, align 8, !tbaa !10
  %32 = call i32 @H5O_loc_copy_deep(ptr noundef %8, ptr noundef %31)
  %33 = icmp slt i32 %32, 0
  br i1 %33, label %34, label %53

34:                                               ; preds = %27
  br label %35

35:                                               ; preds = %34
  br label %36

36:                                               ; preds = %35
  br label %37

37:                                               ; preds = %36
  %38 = load i64, ptr @H5E_SYM_g, align 8, !tbaa !23
  %39 = load i64, ptr @H5E_CANTCOPY_g, align 8, !tbaa !23
  %40 = call i32 (ptr, ptr, i32, i64, i64, ptr, ...) @H5E_printf_stack(ptr noundef @.str, ptr noundef @__func__.H5G__obj_info, i32 noundef 705, i64 noundef %38, i64 noundef %39, ptr noundef @.str.40)
  br label %41

41:                                               ; preds = %37
  br label %42

42:                                               ; preds = %41
  store i8 1, ptr %12, align 1, !tbaa !14
  %43 = load i8, ptr %12, align 1, !tbaa !14, !range !16, !noundef !17
  %44 = trunc i8 %43 to i1
  %45 = zext i1 %44 to i8
  store i8 %45, ptr %12, align 1, !tbaa !14
  br label %46

46:                                               ; preds = %42
  br label %47

47:                                               ; preds = %46
  br label %48

48:                                               ; preds = %47
  store i32 -1, ptr %11, align 4, !tbaa !12
  br label %160

49:                                               ; No predecessors!
  br label %50

50:                                               ; preds = %49
  br label %51

51:                                               ; preds = %50
  br label %52

52:                                               ; preds = %51
  br label %53

53:                                               ; preds = %52, %27
  %54 = call ptr @H5G_open(ptr noundef %6)
  store ptr %54, ptr %5, align 8, !tbaa !78
  %55 = icmp eq ptr null, %54
  br i1 %55, label %56, label %75

56:                                               ; preds = %53
  br label %57

57:                                               ; preds = %56
  br label %58

58:                                               ; preds = %57
  br label %59

59:                                               ; preds = %58
  %60 = load i64, ptr @H5E_FILE_g, align 8, !tbaa !23
  %61 = load i64, ptr @H5E_MOUNT_g, align 8, !tbaa !23
  %62 = call i32 (ptr, ptr, i32, i64, i64, ptr, ...) @H5E_printf_stack(ptr noundef @.str, ptr noundef @__func__.H5G__obj_info, i32 noundef 709, i64 noundef %60, i64 noundef %61, ptr noundef @.str.41)
  br label %63

63:                                               ; preds = %59
  br label %64

64:                                               ; preds = %63
  store i8 1, ptr %12, align 1, !tbaa !14
  %65 = load i8, ptr %12, align 1, !tbaa !14, !range !16, !noundef !17
  %66 = trunc i8 %65 to i1
  %67 = zext i1 %66 to i8
  store i8 %67, ptr %12, align 1, !tbaa !14
  br label %68

68:                                               ; preds = %64
  br label %69

69:                                               ; preds = %68
  br label %70

70:                                               ; preds = %69
  store i32 -1, ptr %11, align 4, !tbaa !12
  br label %160

71:                                               ; No predecessors!
  br label %72

72:                                               ; preds = %71
  br label %73

73:                                               ; preds = %72
  br label %74

74:                                               ; preds = %73
  br label %75

75:                                               ; preds = %74, %53
  %76 = load ptr, ptr %5, align 8, !tbaa !78
  %77 = getelementptr inbounds nuw %struct.H5G_t, ptr %76, i32 0, i32 0
  %78 = load ptr, ptr %77, align 8, !tbaa !84
  %79 = getelementptr inbounds nuw %struct.H5G_shared_t, ptr %78, i32 0, i32 1
  %80 = load i8, ptr %79, align 4, !tbaa !89, !range !16, !noundef !17
  %81 = trunc i8 %80 to i1
  %82 = load ptr, ptr %4, align 8, !tbaa !76
  %83 = getelementptr inbounds nuw %struct.H5G_info_t, ptr %82, i32 0, i32 3
  %84 = zext i1 %81 to i8
  store i8 %84, ptr %83, align 8, !tbaa !91
  %85 = load ptr, ptr %3, align 8, !tbaa !10
  %86 = call i32 @H5G__obj_get_linfo(ptr noundef %85, ptr noundef %9)
  store i32 %86, ptr %10, align 4, !tbaa !12
  %87 = icmp slt i32 %86, 0
  br i1 %87, label %88, label %107

88:                                               ; preds = %75
  br label %89

89:                                               ; preds = %88
  br label %90

90:                                               ; preds = %89
  br label %91

91:                                               ; preds = %90
  %92 = load i64, ptr @H5E_SYM_g, align 8, !tbaa !23
  %93 = load i64, ptr @H5E_CANTGET_g, align 8, !tbaa !23
  %94 = call i32 (ptr, ptr, i32, i64, i64, ptr, ...) @H5E_printf_stack(ptr noundef @.str, ptr noundef @__func__.H5G__obj_info, i32 noundef 716, i64 noundef %92, i64 noundef %93, ptr noundef @.str.19)
  br label %95

95:                                               ; preds = %91
  br label %96

96:                                               ; preds = %95
  store i8 1, ptr %12, align 1, !tbaa !14
  %97 = load i8, ptr %12, align 1, !tbaa !14, !range !16, !noundef !17
  %98 = trunc i8 %97 to i1
  %99 = zext i1 %98 to i8
  store i8 %99, ptr %12, align 1, !tbaa !14
  br label %100

100:                                              ; preds = %96
  br label %101

101:                                              ; preds = %100
  br label %102

102:                                              ; preds = %101
  store i32 -1, ptr %11, align 4, !tbaa !12
  br label %160

103:                                              ; No predecessors!
  br label %104

104:                                              ; preds = %103
  br label %105

105:                                              ; preds = %104
  br label %106

106:                                              ; preds = %105
  br label %107

107:                                              ; preds = %106, %75
  %108 = load i32, ptr %10, align 4, !tbaa !12
  %109 = icmp ne i32 %108, 0
  br i1 %109, label %110, label %129

110:                                              ; preds = %107
  %111 = getelementptr inbounds nuw %struct.H5O_linfo_t, ptr %9, i32 0, i32 4
  %112 = load i64, ptr %111, align 8, !tbaa !58
  %113 = load ptr, ptr %4, align 8, !tbaa !76
  %114 = getelementptr inbounds nuw %struct.H5G_info_t, ptr %113, i32 0, i32 1
  store i64 %112, ptr %114, align 8, !tbaa !93
  %115 = getelementptr inbounds nuw %struct.H5O_linfo_t, ptr %9, i32 0, i32 2
  %116 = load i64, ptr %115, align 8, !tbaa !65
  %117 = load ptr, ptr %4, align 8, !tbaa !76
  %118 = getelementptr inbounds nuw %struct.H5G_info_t, ptr %117, i32 0, i32 2
  store i64 %116, ptr %118, align 8, !tbaa !94
  %119 = getelementptr inbounds nuw %struct.H5O_linfo_t, ptr %9, i32 0, i32 5
  %120 = load i64, ptr %119, align 8, !tbaa !59
  %121 = icmp ne i64 %120, -1
  br i1 %121, label %122, label %125

122:                                              ; preds = %110
  %123 = load ptr, ptr %4, align 8, !tbaa !76
  %124 = getelementptr inbounds nuw %struct.H5G_info_t, ptr %123, i32 0, i32 0
  store i32 2, ptr %124, align 8, !tbaa !95
  br label %128

125:                                              ; preds = %110
  %126 = load ptr, ptr %4, align 8, !tbaa !76
  %127 = getelementptr inbounds nuw %struct.H5G_info_t, ptr %126, i32 0, i32 0
  store i32 1, ptr %127, align 8, !tbaa !95
  br label %128

128:                                              ; preds = %125, %122
  br label %159

129:                                              ; preds = %107
  %130 = load ptr, ptr %3, align 8, !tbaa !10
  %131 = load ptr, ptr %4, align 8, !tbaa !76
  %132 = getelementptr inbounds nuw %struct.H5G_info_t, ptr %131, i32 0, i32 1
  %133 = call i32 @H5G__stab_count(ptr noundef %130, ptr noundef %132)
  %134 = icmp slt i32 %133, 0
  br i1 %134, label %135, label %154

135:                                              ; preds = %129
  br label %136

136:                                              ; preds = %135
  br label %137

137:                                              ; preds = %136
  br label %138

138:                                              ; preds = %137
  %139 = load i64, ptr @H5E_SYM_g, align 8, !tbaa !23
  %140 = load i64, ptr @H5E_CANTCOUNT_g, align 8, !tbaa !23
  %141 = call i32 (ptr, ptr, i32, i64, i64, ptr, ...) @H5E_printf_stack(ptr noundef @.str, ptr noundef @__func__.H5G__obj_info, i32 noundef 731, i64 noundef %139, i64 noundef %140, ptr noundef @.str.42)
  br label %142

142:                                              ; preds = %138
  br label %143

143:                                              ; preds = %142
  store i8 1, ptr %12, align 1, !tbaa !14
  %144 = load i8, ptr %12, align 1, !tbaa !14, !range !16, !noundef !17
  %145 = trunc i8 %144 to i1
  %146 = zext i1 %145 to i8
  store i8 %146, ptr %12, align 1, !tbaa !14
  br label %147

147:                                              ; preds = %143
  br label %148

148:                                              ; preds = %147
  br label %149

149:                                              ; preds = %148
  store i32 -1, ptr %11, align 4, !tbaa !12
  br label %160

150:                                              ; No predecessors!
  br label %151

151:                                              ; preds = %150
  br label %152

152:                                              ; preds = %151
  br label %153

153:                                              ; preds = %152
  br label %154

154:                                              ; preds = %153, %129
  %155 = load ptr, ptr %4, align 8, !tbaa !76
  %156 = getelementptr inbounds nuw %struct.H5G_info_t, ptr %155, i32 0, i32 0
  store i32 0, ptr %156, align 8, !tbaa !95
  %157 = load ptr, ptr %4, align 8, !tbaa !76
  %158 = getelementptr inbounds nuw %struct.H5G_info_t, ptr %157, i32 0, i32 2
  store i64 0, ptr %158, align 8, !tbaa !94
  br label %159

159:                                              ; preds = %154, %128
  br label %160

160:                                              ; preds = %159, %149, %102, %70, %48
  %161 = load ptr, ptr %5, align 8, !tbaa !78
  %162 = icmp ne ptr %161, null
  br i1 %162, label %163, label %183

163:                                              ; preds = %160
  %164 = load ptr, ptr %5, align 8, !tbaa !78
  %165 = call i32 @H5G_close(ptr noundef %164)
  %166 = icmp slt i32 %165, 0
  br i1 %166, label %167, label %183

167:                                              ; preds = %163
  br label %168

168:                                              ; preds = %167
  br label %169

169:                                              ; preds = %168
  br label %170

170:                                              ; preds = %169
  %171 = load i64, ptr @H5E_SYM_g, align 8, !tbaa !23
  %172 = load i64, ptr @H5E_CANTCLOSEOBJ_g, align 8, !tbaa !23
  %173 = call i32 (ptr, ptr, i32, i64, i64, ptr, ...) @H5E_printf_stack(ptr noundef @.str, ptr noundef @__func__.H5G__obj_info, i32 noundef 741, i64 noundef %171, i64 noundef %172, ptr noundef @.str.43)
  br label %174

174:                                              ; preds = %170
  br label %175

175:                                              ; preds = %174
  store i8 1, ptr %12, align 1, !tbaa !14
  %176 = load i8, ptr %12, align 1, !tbaa !14, !range !16, !noundef !17
  %177 = trunc i8 %176 to i1
  %178 = zext i1 %177 to i8
  store i8 %178, ptr %12, align 1, !tbaa !14
  br label %179

179:                                              ; preds = %175
  br label %180

180:                                              ; preds = %179
  store i32 -1, ptr %11, align 4, !tbaa !12
  br label %181

181:                                              ; preds = %180
  br label %182

182:                                              ; preds = %181
  br label %183

183:                                              ; preds = %182, %163, %160
  br label %184

184:                                              ; preds = %183, %19
  %185 = load i32, ptr %11, align 4, !tbaa !12
  call void @llvm.lifetime.end.p0(i64 1, ptr %12) #6
  call void @llvm.lifetime.end.p0(i64 4, ptr %11) #6
  call void @llvm.lifetime.end.p0(i64 4, ptr %10) #6
  call void @llvm.lifetime.end.p0(i64 48, ptr %9) #6
  call void @llvm.lifetime.end.p0(i64 24, ptr %8) #6
  call void @llvm.lifetime.end.p0(i64 24, ptr %7) #6
  call void @llvm.lifetime.end.p0(i64 16, ptr %6) #6
  call void @llvm.lifetime.end.p0(i64 8, ptr %5) #6
  ret i32 %185
}