; Function Attrs: nounwind uwtable
define range(i32 -1, 1) i32 @H5G__obj_info(ptr noundef %0, ptr noundef %1) local_unnamed_addr #0 {
  %3 = alloca %struct.H5G_loc_t, align 8
  %4 = alloca %struct.H5G_name_t, align 8
  %5 = alloca %struct.H5O_loc_t, align 8
  %6 = alloca %struct.H5O_linfo_t, align 8
  call void @llvm.lifetime.start.p0(i64 16, ptr nonnull %3) #5
  call void @llvm.lifetime.start.p0(i64 24, ptr nonnull %4) #5
  call void @llvm.lifetime.start.p0(i64 24, ptr nonnull %5) #5
  call void @llvm.lifetime.start.p0(i64 48, ptr nonnull %6) #5
  %7 = load i8, ptr @H5G_init_g, align 1, !tbaa !3, !range !7, !noundef !8
  %8 = trunc nuw i8 %7 to i1
  %9 = load i8, ptr @H5_libterm_g, align 1, !range !7
  %10 = trunc nuw i8 %9 to i1
  %11 = xor i1 %10, true
  %12 = select i1 %8, i1 true, i1 %11
  br i1 %12, label %13, label %69, !prof !9

13:                                               ; preds = %2
  store ptr %5, ptr %3, align 8, !tbaa !58
  %14 = getelementptr inbounds nuw i8, ptr %3, i64 8
  store ptr %4, ptr %14, align 8, !tbaa !61
  %15 = call i32 @H5G_loc_reset(ptr noundef nonnull %3) #5
  %16 = call i32 @H5O_loc_copy_deep(ptr noundef nonnull %5, ptr noundef %0) #5
  %17 = icmp slt i32 %16, 0
  br i1 %17, label %18, label %22

18:                                               ; preds = %13
  %19 = load i64, ptr @H5E_SYM_g, align 8, !tbaa !14
  %20 = load i64, ptr @H5E_CANTCOPY_g, align 8, !tbaa !14
  %21 = call i32 (ptr, ptr, i32, i64, i64, ptr, ...) @H5E_printf_stack(ptr noundef nonnull @.str, ptr noundef nonnull @__func__.H5G__obj_info, i32 noundef 705, i64 noundef %19, i64 noundef %20, ptr noundef nonnull @.str.40) #5
  br label %69

22:                                               ; preds = %13
  %23 = call ptr @H5G_open(ptr noundef nonnull %3) #5
  %24 = icmp eq ptr %23, null
  br i1 %24, label %25, label %29

25:                                               ; preds = %22
  %26 = load i64, ptr @H5E_FILE_g, align 8, !tbaa !14
  %27 = load i64, ptr @H5E_MOUNT_g, align 8, !tbaa !14
  %28 = call i32 (ptr, ptr, i32, i64, i64, ptr, ...) @H5E_printf_stack(ptr noundef nonnull @.str, ptr noundef nonnull @__func__.H5G__obj_info, i32 noundef 709, i64 noundef %26, i64 noundef %27, ptr noundef nonnull @.str.41) #5
  br label %69

29:                                               ; preds = %22
  %30 = load ptr, ptr %23, align 8, !tbaa !62
  %31 = getelementptr inbounds nuw i8, ptr %30, i64 4
  %32 = load i8, ptr %31, align 4, !tbaa !67, !range !7, !noundef !8
  %33 = getelementptr inbounds nuw i8, ptr %1, i64 24
  store i8 %32, ptr %33, align 8, !tbaa !69
  %34 = call i32 @H5G__obj_get_linfo(ptr noundef %0, ptr noundef nonnull %6)
  %35 = icmp slt i32 %34, 0
  br i1 %35, label %36, label %40

36:                                               ; preds = %29
  %37 = load i64, ptr @H5E_SYM_g, align 8, !tbaa !14
  %38 = load i64, ptr @H5E_CANTGET_g, align 8, !tbaa !14
  %39 = call i32 (ptr, ptr, i32, i64, i64, ptr, ...) @H5E_printf_stack(ptr noundef nonnull @.str, ptr noundef nonnull @__func__.H5G__obj_info, i32 noundef 716, i64 noundef %37, i64 noundef %38, ptr noundef nonnull @.str.19) #5
  br label %62

40:                                               ; preds = %29
  %.not = icmp eq i32 %34, 0
  br i1 %.not, label %52, label %41

41:                                               ; preds = %40
  %42 = getelementptr inbounds nuw i8, ptr %6, i64 24
  %43 = load i64, ptr %42, align 8, !tbaa !43
  %44 = getelementptr inbounds nuw i8, ptr %1, i64 8
  store i64 %43, ptr %44, align 8, !tbaa !71
  %45 = getelementptr inbounds nuw i8, ptr %6, i64 8
  %46 = load i64, ptr %45, align 8, !tbaa !47
  %47 = getelementptr inbounds nuw i8, ptr %1, i64 16
  store i64 %46, ptr %47, align 8, !tbaa !72
  %48 = getelementptr inbounds nuw i8, ptr %6, i64 32
  %49 = load i64, ptr %48, align 8, !tbaa !44
  %.not24 = icmp eq i64 %49, -1
  br i1 %.not24, label %51, label %50

50:                                               ; preds = %41
  store i32 2, ptr %1, align 8, !tbaa !73
  br label %62

51:                                               ; preds = %41
  store i32 1, ptr %1, align 8, !tbaa !73
  br label %62

52:                                               ; preds = %40
  %53 = getelementptr inbounds nuw i8, ptr %1, i64 8
  %54 = call i32 @H5G__stab_count(ptr noundef %0, ptr noundef nonnull %53) #5
  %55 = icmp slt i32 %54, 0
  br i1 %55, label %56, label %60

56:                                               ; preds = %52
  %57 = load i64, ptr @H5E_SYM_g, align 8, !tbaa !14
  %58 = load i64, ptr @H5E_CANTCOUNT_g, align 8, !tbaa !14
  %59 = call i32 (ptr, ptr, i32, i64, i64, ptr, ...) @H5E_printf_stack(ptr noundef nonnull @.str, ptr noundef nonnull @__func__.H5G__obj_info, i32 noundef 731, i64 noundef %57, i64 noundef %58, ptr noundef nonnull @.str.42) #5
  br label %62

60:                                               ; preds = %52
  store i32 0, ptr %1, align 8, !tbaa !73
  %61 = getelementptr inbounds nuw i8, ptr %1, i64 16
  store i64 0, ptr %61, align 8, !tbaa !72
  br label %62

62:                                               ; preds = %36, %50, %51, %56, %60
  %.1.ph = phi i32 [ 0, %60 ], [ -1, %56 ], [ 0, %51 ], [ 0, %50 ], [ -1, %36 ]
  %63 = call i32 @H5G_close(ptr noundef nonnull %23) #5
  %64 = icmp slt i32 %63, 0
  br i1 %64, label %65, label %69

65:                                               ; preds = %62
  %66 = load i64, ptr @H5E_SYM_g, align 8, !tbaa !14
  %67 = load i64, ptr @H5E_CANTCLOSEOBJ_g, align 8, !tbaa !14
  %68 = call i32 (ptr, ptr, i32, i64, i64, ptr, ...) @H5E_printf_stack(ptr noundef nonnull @.str, ptr noundef nonnull @__func__.H5G__obj_info, i32 noundef 741, i64 noundef %66, i64 noundef %67, ptr noundef nonnull @.str.43) #5
  br label %69

69:                                               ; preds = %18, %25, %62, %65, %2
  %.0 = phi i32 [ -1, %65 ], [ %.1.ph, %62 ], [ 0, %2 ], [ -1, %18 ], [ -1, %25 ]
  call void @llvm.lifetime.end.p0(i64 48, ptr nonnull %6) #5
  call void @llvm.lifetime.end.p0(i64 24, ptr nonnull %5) #5
  call void @llvm.lifetime.end.p0(i64 24, ptr nonnull %4) #5
  call void @llvm.lifetime.end.p0(i64 16, ptr nonnull %3) #5
  ret i32 %.0
}